target datalayout = "e-m:e-p270:32:32-p271:32:32-p272:64:64-i64:64-i128:128-f80:128-n8:16:32:64-S128"
target triple = "x86_64-pc-linux-gnu"

%struct.EncoderSession = type { i32, i32, i32, i32, ptr, ptr, ptr, i32, i32, i32, i64, i64, i64, i64, i32, i64, [16 x i8], %struct.SampleInfo, i32, %union.anon.4, ptr, ptr, ptr, double, double }
%struct.SampleInfo = type { i32, i32, i32, i32, i32, i32, i32, i32 }
%union.anon.4 = type { %struct.anon.6 }
%struct.anon.6 = type { ptr, %struct.FLACDecoderData }
%struct.FLACDecoderData = type { i64, ptr, i32, i64, [1024 x ptr], i64, i32 }

@stderr = external global ptr, align 8
@.str.99 = private unnamed_addr constant [1 x i8] zeroinitializer, align 1
@.str.152 = private unnamed_addr constant [9 x i8] c"\0A%s: %s\0A\00", align 1
@.str.153 = private unnamed_addr constant [22 x i8] c"%*s init_status = %s\0A\00", align 1
@FLAC__StreamEncoderInitStatusString = external constant [0 x ptr], align 8
@.str.154 = private unnamed_addr constant [16 x i8] c"%*s state = %s\0A\00", align 1
@FLAC__StreamEncoderStateString = external constant [0 x ptr], align 8
@.str.155 = private unnamed_addr constant [83 x i8] c"\0AAn error occurred while writing; the most common cause is that the disk is full.\0A\00", align 1
@.str.156 = private unnamed_addr constant [192 x i8] c"\0AAn error occurred opening the output file; it is likely that the output\0Adirectory does not exist or is not writable, the output file already exists and\0Ais not writable, or the disk is full.\0A\00", align 1

; Function Attrs: nounwind sspstrong uwtable
define internal void @print_error_with_init_status(ptr noundef %0, ptr noundef %1, i32 noundef %2) #0 {
  %4 = alloca ptr, align 8
  %5 = alloca ptr, align 8
  %6 = alloca i32, align 4
  %7 = alloca i32, align 4
  %8 = alloca ptr, align 8
  store ptr %0, ptr %4, align 8, !tbaa !48
  store ptr %1, ptr %5, align 8, !tbaa !11
  store i32 %2, ptr %6, align 4, !tbaa !13
  call void @llvm.lifetime.start.p0(i64 4, ptr %7) #14
  %9 = load ptr, ptr %4, align 8, !tbaa !48
  %10 = getelementptr inbounds nuw %struct.EncoderSession, ptr %9, i32 0, i32 4
  %11 = load ptr, ptr %10, align 8, !tbaa !24
  %12 = call i64 @strlen(ptr noundef %11) #15
  %13 = add i64 %12, 1
  %14 = trunc i64 %13 to i32
  store i32 %14, ptr %7, align 4, !tbaa !13
  call void @llvm.lifetime.start.p0(i64 8, ptr %8) #14
  store ptr @.str.99, ptr %8, align 8, !tbaa !11
  %15 = load ptr, ptr @stderr, align 8, !tbaa !4
  %16 = load ptr, ptr %4, align 8, !tbaa !48
  %17 = getelementptr inbounds nuw %struct.EncoderSession, ptr %16, i32 0, i32 4
  %18 = load ptr, ptr %17, align 8, !tbaa !24
  %19 = load ptr, ptr %5, align 8, !tbaa !11
  call void (ptr, i32, ptr, ...) @flac__utils_printf(ptr noundef %15, i32 noundef 1, ptr noundef @.str.152, ptr noundef %18, ptr noundef %19)
  %20 = load ptr, ptr @stderr, align 8, !tbaa !4
  %21 = load i32, ptr %7, align 4, !tbaa !13
  %22 = load i32, ptr %6, align 4, !tbaa !13
  %23 = zext i32 %22 to i64
  %24 = getelementptr inbounds nuw [0 x ptr], ptr @FLAC__StreamEncoderInitStatusString, i64 0, i64 %23
  %25 = load ptr, ptr %24, align 8, !tbaa !11
  call void (ptr, i32, ptr, ...) @flac__utils_printf(ptr noundef %20, i32 noundef 1, ptr noundef @.str.153, i32 noundef %21, ptr noundef @.str.99, ptr noundef %25)
  %26 = load i32, ptr %6, align 4, !tbaa !13
  %27 = icmp eq i32 %26, 1
  br i1 %27, label %28, label %51

28:                                               ; preds = %3
  %29 = load ptr, ptr %4, align 8, !tbaa !48
  %30 = getelementptr inbounds nuw %struct.EncoderSession, ptr %29, i32 0, i32 20
  %31 = load ptr, ptr %30, align 8, !tbaa !66
  %32 = call ptr @FLAC__stream_encoder_get_resolved_state_string(ptr noundef %31)
  store ptr %32, ptr %8, align 8, !tbaa !11
  %33 = load ptr, ptr @stderr, align 8, !tbaa !4
  %34 = load i32, ptr %7, align 4, !tbaa !13
  %35 = load ptr, ptr %8, align 8, !tbaa !11
  call void (ptr, i32, ptr, ...) @flac__utils_printf(ptr noundef %33, i32 noundef 1, ptr noundef @.str.154, i32 noundef %34, ptr noundef @.str.99, ptr noundef %35)
  %36 = load ptr, ptr %8, align 8, !tbaa !11
  %37 = load ptr, ptr getelementptr inbounds ([0 x ptr], ptr @FLAC__StreamEncoderStateString, i64 0, i64 5), align 8, !tbaa !11
  %38 = call i32 @strcmp(ptr noundef %36, ptr noundef %37) #15
  %39 = icmp eq i32 0, %38
  br i1 %39, label %40, label %42

40:                                               ; preds = %28
  %41 = load ptr, ptr @stderr, align 8, !tbaa !4
  call void (ptr, i32, ptr, ...) @flac__utils_printf(ptr noundef %41, i32 noundef 1, ptr noundef @.str.155)
  br label %50

42:                                               ; preds = %28
  %43 = load ptr, ptr %8, align 8, !tbaa !11
  %44 = load ptr, ptr getelementptr inbounds ([0 x ptr], ptr @FLAC__StreamEncoderStateString, i64 0, i64 6), align 8, !tbaa !11
  %45 = call i32 @strcmp(ptr noundef %43, ptr noundef %44) #15
  %46 = icmp eq i32 0, %45
  br i1 %46, label %47, label %49

47:                                               ; preds = %42
  %48 = load ptr, ptr @stderr, align 8, !tbaa !4
  call void (ptr, i32, ptr, ...) @flac__utils_printf(ptr noundef %48, i32 noundef 1, ptr noundef @.str.156)
  br label %49

49:                                               ; preds = %47, %42
  br label %50

50:                                               ; preds = %49, %40
  br label %57

51:                                               ; preds = %3
  %52 = load i32, ptr %6, align 4, !tbaa !13
  %53 = icmp eq i32 %52, 11
  br i1 %53, label %54, label %56

54:                                               ; preds = %51
  %55 = load ptr, ptr @stderr, align 8, !tbaa !4
  call void (ptr, i32, ptr, ...) @flac__utils_printf(ptr noundef %55, i32 noundef 1, ptr noundef @.str.157)
  br label %56

56:                                               ; preds = %54, %51
  br label %57

57:                                               ; preds = %56, %50
  call void @llvm.lifetime.end.p0(i64 8, ptr %8) #14
  call void @llvm.lifetime.end.p0(i64 4, ptr %7) #14
  ret void
}