; Function Attrs: nounwind sspstrong uwtable
define internal fastcc void @print_error_with_init_status(ptr noundef nonnull readonly captures(none) %0, i32 noundef range(i32 1, 0) %1) unnamed_addr #0 {
  %3 = getelementptr inbounds nuw i8, ptr %0, i64 16
  %4 = load ptr, ptr %3, align 8, !tbaa !25
  %5 = tail call i64 @strlen(ptr noundef nonnull dereferenceable(1) %4) #23
  %6 = trunc i64 %5 to i32
  %7 = add i32 %6, 1
  %8 = load ptr, ptr @stderr, align 8, !tbaa !33
  tail call void (ptr, i32, ptr, ...) @flac__utils_printf(ptr noundef %8, i32 noundef 1, ptr noundef nonnull @.str.152, ptr noundef nonnull %4, ptr noundef nonnull @.str.138) #20
  %9 = load ptr, ptr @stderr, align 8, !tbaa !33
  %10 = zext i32 %1 to i64
  %11 = getelementptr inbounds nuw [0 x ptr], ptr @FLAC__StreamEncoderInitStatusString, i64 0, i64 %10
  %12 = load ptr, ptr %11, align 8, !tbaa !42
  tail call void (ptr, i32, ptr, ...) @flac__utils_printf(ptr noundef %9, i32 noundef 1, ptr noundef nonnull @.str.153, i32 noundef %7, ptr noundef nonnull @.str.99, ptr noundef %12) #20
  switch i32 %1, label %26 [
    i32 1, label %13
    i32 11, label %.sink.split
  ]

13:                                               ; preds = %2
  %14 = getelementptr inbounds nuw i8, ptr %0, i64 8408
  %15 = load ptr, ptr %14, align 8, !tbaa !34
  %16 = tail call ptr @FLAC__stream_encoder_get_resolved_state_string(ptr noundef %15) #20
  %17 = load ptr, ptr @stderr, align 8, !tbaa !33
  tail call void (ptr, i32, ptr, ...) @flac__utils_printf(ptr noundef %17, i32 noundef 1, ptr noundef nonnull @.str.154, i32 noundef %7, ptr noundef nonnull @.str.99, ptr noundef %16) #20
  %18 = load ptr, ptr getelementptr inbounds nuw (i8, ptr @FLAC__StreamEncoderStateString, i64 40), align 8, !tbaa !42
  %19 = tail call i32 @strcmp(ptr noundef nonnull dereferenceable(1) %16, ptr noundef nonnull dereferenceable(1) %18) #23
  %20 = icmp eq i32 %19, 0
  br i1 %20, label %.sink.split, label %21

21:                                               ; preds = %13
  %22 = load ptr, ptr getelementptr inbounds nuw (i8, ptr @FLAC__StreamEncoderStateString, i64 48), align 8, !tbaa !42
  %23 = tail call i32 @strcmp(ptr noundef nonnull dereferenceable(1) %16, ptr noundef nonnull dereferenceable(1) %22) #23
  %24 = icmp eq i32 %23, 0
  br i1 %24, label %.sink.split, label %26

.sink.split:                                      ; preds = %2, %21, %13
  %.str.157.sink = phi ptr [ @.str.155, %13 ], [ @.str.156, %21 ], [ @.str.157, %2 ]
  %25 = load ptr, ptr @stderr, align 8, !tbaa !33
  tail call void (ptr, i32, ptr, ...) @flac__utils_printf(ptr noundef %25, i32 noundef 1, ptr noundef nonnull %.str.157.sink) #20
  br label %26

26:                                               ; preds = %.sink.split, %2, %21
  ret void
}